; Function Attrs: mustprogress uwtable
define internal void @_ZZN12_GLOBAL__N_121DOCTEST_ANON_CLASS_451fEvENUlRN4Luau7CodeGen3X6418AssemblyBuilderX64EE0_8__invokeES5_(ptr noundef nonnull align 8 dereferenceable(252) %0) #2 align 2 {
  %2 = alloca %"struct.Luau::CodeGen::Label", align 4
  call void @llvm.lifetime.start.p0(i64 8, ptr nonnull %2)
  store i32 0, ptr %2, align 4
  %3 = getelementptr inbounds nuw i8, ptr %2, i64 4
  store i32 -1, ptr %3, align 4
  tail call void @_ZN4Luau7CodeGen3X6418AssemblyBuilderX643addENS1_10OperandX64ES3_(ptr noundef nonnull align 8 dereferenceable(252) %0, i64 271876096, i64 4571824130)
  call void @_ZN4Luau7CodeGen3X6418AssemblyBuilderX648setLabelERNS0_5LabelE(ptr noundef nonnull align 8 dereferenceable(252) %0, ptr noundef nonnull align 4 dereferenceable(8) %2)
  call void @_ZN4Luau7CodeGen3X6418AssemblyBuilderX643cmpENS1_10OperandX64ES3_(ptr noundef nonnull align 8 dereferenceable(252) %0, i64 271876096, i64 272400384)
  call void @_ZN4Luau7CodeGen3X6418AssemblyBuilderX643jccENS0_12ConditionX64ERNS0_5LabelE(ptr noundef nonnull align 8 dereferenceable(252) %0, i8 noundef zeroext 8, ptr noundef nonnull align 4 dereferenceable(8) %2)
  call void @llvm.lifetime.end.p0(i64 8, ptr nonnull %2)
  ret void
}